; Function Attrs: inlinehint nounwind uwtable
define internal void @Abc_Print(i32 %0, ptr readnone captures(none) %1, ...) unnamed_addr #5 {
  %3 = alloca [1 x %struct.__va_list_tag], align 16
  call void @llvm.lifetime.start.p0(i64 24, ptr nonnull %3) #20
  %4 = load i32, ptr @enable_dbg_outs, align 4, !tbaa !33
  %.not = icmp eq i32 %4, 0
  br i1 %.not, label %18, label %5

5:                                                ; preds = %2
  %6 = tail call i32 (...) @Abc_FrameIsBridgeMode() #20
  call void @llvm.va_start.p0(ptr nonnull %3)
  %7 = call i32 (...) @Abc_FrameIsBridgeMode() #20
  %.not9 = icmp eq i32 %7, 0
  br i1 %.not9, label %14, label %8

8:                                                ; preds = %5
  %9 = call ptr @vnsprintf(ptr noundef nonnull @.str.16, ptr noundef nonnull %3) #20
  %10 = load ptr, ptr @stdout, align 8, !tbaa !126
  %11 = call i64 @strlen(ptr noundef nonnull dereferenceable(1) %9) #21
  %12 = trunc i64 %11 to i32
  %13 = call i32 @Gia_ManToBridgeText(ptr noundef %10, i32 noundef %12, ptr noundef nonnull %9) #20
  call void @free(ptr noundef %9) #20
  br label %17

14:                                               ; preds = %5
  %15 = load ptr, ptr @stdout, align 8, !tbaa !126, !noalias !128
  %16 = call i32 @vfprintf(ptr noundef %15, ptr noundef nonnull @.str.16, ptr noundef nonnull %3) #20
  br label %17

17:                                               ; preds = %14, %8
  call void @llvm.va_end.p0(ptr nonnull %3)
  br label %18

18:                                               ; preds = %2, %17
  call void @llvm.lifetime.end.p0(i64 24, ptr nonnull %3) #20
  ret void
}